target datalayout = "e-m:e-p270:32:32-p271:32:32-p272:64:64-i64:64-i128:128-f80:128-n8:16:32:64-S128"
target triple = "x86_64-pc-linux-gnu"

%struct.Vec_Ptr_t_ = type { i32, i32, ptr }
%struct.Aig_Obj_t_ = type { %union.anon, ptr, ptr, i64, i32, i32, %union.anon.0 }
%union.anon = type { ptr }
%union.anon.0 = type { ptr }
%struct.Aig_Man_t_ = type { ptr, ptr, ptr, ptr, ptr, ptr, ptr, %struct.Aig_Obj_t_, i32, i32, i32, i32, i32, i32, [7 x i32], i32, ptr, i32, ptr, i32, ptr, i32, i32, i32, ptr, i32, i32, i32, i32, i32, ptr, ptr, i32, ptr, ptr, i32, ptr, ptr, i32, i32, i32, ptr, ptr, ptr, ptr, ptr, ptr, ptr, ptr, ptr, ptr, ptr, ptr, ptr, ptr, i32, ptr, ptr, ptr, ptr, i32, i64, i64, i64, ptr, ptr }

; Function Attrs: inlinehint nounwind uwtable
define internal ptr @Vec_PtrEntry(ptr noundef %0, i32 noundef %1) #2 {
  %3 = alloca ptr, align 8
  %4 = alloca i32, align 4
  store ptr %0, ptr %3, align 8, !tbaa !8
  store i32 %1, ptr %4, align 4, !tbaa !10
  %5 = load ptr, ptr %3, align 8, !tbaa !8
  %6 = getelementptr inbounds nuw %struct.Vec_Ptr_t_, ptr %5, i32 0, i32 2
  %7 = load ptr, ptr %6, align 8, !tbaa !17
  %8 = load i32, ptr %4, align 4, !tbaa !10
  %9 = sext i32 %8 to i64
  %10 = getelementptr inbounds ptr, ptr %7, i64 %9
  %11 = load ptr, ptr %10, align 8, !tbaa !18
  ret ptr %11
}

; Function Attrs: inlinehint nounwind uwtable
define internal ptr @Aig_ManObj(ptr noundef %0, i32 noundef %1) #2 {
  %3 = alloca ptr, align 8
  %4 = alloca i32, align 4
  store ptr %0, ptr %3, align 8, !tbaa !3
  store i32 %1, ptr %4, align 4, !tbaa !10
  %5 = load ptr, ptr %3, align 8, !tbaa !3
  %6 = getelementptr inbounds nuw %struct.Aig_Man_t_, ptr %5, i32 0, i32 4
  %7 = load ptr, ptr %6, align 8, !tbaa !46
  %8 = icmp ne ptr %7, null
  br i1 %8, label %9, label %15

9:                                                ; preds = %2
  %10 = load ptr, ptr %3, align 8, !tbaa !3
  %11 = getelementptr inbounds nuw %struct.Aig_Man_t_, ptr %10, i32 0, i32 4
  %12 = load ptr, ptr %11, align 8, !tbaa !46
  %13 = load i32, ptr %4, align 4, !tbaa !10
  %14 = call ptr @Vec_PtrEntry(ptr noundef %12, i32 noundef %13)
  br label %16

15:                                               ; preds = %2
  br label %16

16:                                               ; preds = %15, %9
  %17 = phi ptr [ %14, %9 ], [ null, %15 ]
  ret ptr %17
}

; Function Attrs: inlinehint nounwind uwtable
define internal i32 @Aig_ObjFanout0Int(ptr noundef %0, i32 noundef %1) #2 {
  %3 = alloca ptr, align 8
  %4 = alloca i32, align 4
  store ptr %0, ptr %3, align 8, !tbaa !3
  store i32 %1, ptr %4, align 4, !tbaa !10
  %5 = load ptr, ptr %3, align 8, !tbaa !3
  %6 = getelementptr inbounds nuw %struct.Aig_Man_t_, ptr %5, i32 0, i32 18
  %7 = load ptr, ptr %6, align 8, !tbaa !64
  %8 = load i32, ptr %4, align 4, !tbaa !10
  %9 = mul nsw i32 5, %8
  %10 = sext i32 %9 to i64
  %11 = getelementptr inbounds i32, ptr %7, i64 %10
  %12 = load i32, ptr %11, align 4, !tbaa !10
  ret i32 %12
}

; Function Attrs: inlinehint nounwind uwtable
define internal i32 @Aig_ObjFanoutNext(ptr noundef %0, i32 noundef %1) #2 {
  %3 = alloca ptr, align 8
  %4 = alloca i32, align 4
  store ptr %0, ptr %3, align 8, !tbaa !3
  store i32 %1, ptr %4, align 4, !tbaa !10
  %5 = load ptr, ptr %3, align 8, !tbaa !3
  %6 = getelementptr inbounds nuw %struct.Aig_Man_t_, ptr %5, i32 0, i32 18
  %7 = load ptr, ptr %6, align 8, !tbaa !64
  %8 = load i32, ptr %4, align 4, !tbaa !10
  %9 = ashr i32 %8, 1
  %10 = mul nsw i32 5, %9
  %11 = add nsw i32 %10, 3
  %12 = load i32, ptr %4, align 4, !tbaa !10
  %13 = and i32 %12, 1
  %14 = add nsw i32 %11, %13
  %15 = sext i32 %14 to i64
  %16 = getelementptr inbounds i32, ptr %7, i64 %15
  %17 = load i32, ptr %16, align 4, !tbaa !10
  ret i32 %17
}

; Function Attrs: inlinehint nounwind uwtable
define internal ptr @Aig_Regular(ptr noundef %0) #2 {
  %2 = alloca ptr, align 8
  store ptr %0, ptr %2, align 8, !tbaa !19
  %3 = load ptr, ptr %2, align 8, !tbaa !19
  %4 = ptrtoint ptr %3 to i64
  %5 = and i64 %4, -2
  %6 = inttoptr i64 %5 to ptr
  ret ptr %6
}

; Function Attrs: inlinehint nounwind uwtable
define internal ptr @Llb_ObjGetFanoutPath(ptr noundef %0, ptr noundef %1) #2 {
  %3 = alloca ptr, align 8
  %4 = alloca ptr, align 8
  %5 = alloca ptr, align 8
  %6 = alloca ptr, align 8
  %7 = alloca i32, align 4
  %8 = alloca i32, align 4
  %9 = alloca i32, align 4
  store ptr %0, ptr %4, align 8, !tbaa !3
  store ptr %1, ptr %5, align 8, !tbaa !19
  call void @llvm.lifetime.start.p0(i64 8, ptr %6) #10
  call void @llvm.lifetime.start.p0(i64 4, ptr %7) #10
  call void @llvm.lifetime.start.p0(i64 4, ptr %8) #10
  store i32 -1, ptr %8, align 4, !tbaa !10
  store i32 0, ptr %7, align 4, !tbaa !10
  br label %10

10:                                               ; preds = %49, %2
  %11 = load i32, ptr %7, align 4, !tbaa !10
  %12 = load ptr, ptr %5, align 8, !tbaa !19
  %13 = getelementptr inbounds nuw %struct.Aig_Obj_t_, ptr %12, i32 0, i32 3
  %14 = load i64, ptr %13, align 8
  %15 = lshr i64 %14, 6
  %16 = and i64 %15, 67108863
  %17 = trunc i64 %16 to i32
  %18 = icmp slt i32 %11, %17
  br i1 %18, label %19, label %39

19:                                               ; preds = %10
  %20 = load i32, ptr %7, align 4, !tbaa !10
  %21 = icmp ne i32 %20, 0
  br i1 %21, label %22, label %26

22:                                               ; preds = %19
  %23 = load ptr, ptr %4, align 8, !tbaa !3
  %24 = load i32, ptr %8, align 4, !tbaa !10
  %25 = call i32 @Aig_ObjFanoutNext(ptr noundef %23, i32 noundef %24)
  br label %32

26:                                               ; preds = %19
  %27 = load ptr, ptr %4, align 8, !tbaa !3
  %28 = load ptr, ptr %5, align 8, !tbaa !19
  %29 = getelementptr inbounds nuw %struct.Aig_Obj_t_, ptr %28, i32 0, i32 5
  %30 = load i32, ptr %29, align 4, !tbaa !25
  %31 = call i32 @Aig_ObjFanout0Int(ptr noundef %27, i32 noundef %30)
  br label %32

32:                                               ; preds = %26, %22
  %33 = phi i32 [ %25, %22 ], [ %31, %26 ]
  store i32 %33, ptr %8, align 4, !tbaa !10
  br i1 true, label %34, label %39

34:                                               ; preds = %32
  %35 = load ptr, ptr %4, align 8, !tbaa !3
  %36 = load i32, ptr %8, align 4, !tbaa !10
  %37 = ashr i32 %36, 1
  %38 = call ptr @Aig_ManObj(ptr noundef %35, i32 noundef %37)
  store ptr %38, ptr %6, align 8, !tbaa !19
  br label %39

39:                                               ; preds = %34, %32, %10
  %40 = phi i1 [ false, %32 ], [ false, %10 ], [ true, %34 ]
  br i1 %40, label %41, label %52

41:                                               ; preds = %39
  %42 = load ptr, ptr %6, align 8, !tbaa !19
  %43 = call ptr @Llb_ObjGetPath(ptr noundef %42)
  %44 = load ptr, ptr %5, align 8, !tbaa !19
  %45 = icmp eq ptr %43, %44
  br i1 %45, label %46, label %48

46:                                               ; preds = %41
  %47 = load ptr, ptr %6, align 8, !tbaa !19
  store ptr %47, ptr %3, align 8
  store i32 1, ptr %9, align 4
  br label %53

48:                                               ; preds = %41
  br label %49

49:                                               ; preds = %48
  %50 = load i32, ptr %7, align 4, !tbaa !10
  %51 = add nsw i32 %50, 1
  store i32 %51, ptr %7, align 4, !tbaa !10
  br label %10, !llvm.loop !75

52:                                               ; preds = %39
  store ptr null, ptr %3, align 8
  store i32 1, ptr %9, align 4
  br label %53

53:                                               ; preds = %52, %46
  call void @llvm.lifetime.end.p0(i64 4, ptr %8) #10
  call void @llvm.lifetime.end.p0(i64 4, ptr %7) #10
  call void @llvm.lifetime.end.p0(i64 8, ptr %6) #10
  %54 = load ptr, ptr %3, align 8
  ret ptr %54
}

; Function Attrs: inlinehint nounwind uwtable
define internal ptr @Aig_ObjFanin1(ptr noundef %0) #2 {
  %2 = alloca ptr, align 8
  store ptr %0, ptr %2, align 8, !tbaa !19
  %3 = load ptr, ptr %2, align 8, !tbaa !19
  %4 = getelementptr inbounds nuw %struct.Aig_Obj_t_, ptr %3, i32 0, i32 2
  %5 = load ptr, ptr %4, align 8, !tbaa !67
  %6 = call ptr @Aig_Regular(ptr noundef %5)
  ret ptr %6
}

; Function Attrs: inlinehint nounwind uwtable
define internal ptr @Aig_ObjFanin0(ptr noundef %0) #2 {
  %2 = alloca ptr, align 8
  store ptr %0, ptr %2, align 8, !tbaa !19
  %3 = load ptr, ptr %2, align 8, !tbaa !19
  %4 = getelementptr inbounds nuw %struct.Aig_Obj_t_, ptr %3, i32 0, i32 1
  %5 = load ptr, ptr %4, align 8, !tbaa !59
  %6 = call ptr @Aig_Regular(ptr noundef %5)
  ret ptr %6
}

; Function Attrs: inlinehint nounwind uwtable
define internal i32 @Aig_ObjIsNode(ptr noundef %0) #2 {
  %2 = alloca ptr, align 8
  store ptr %0, ptr %2, align 8, !tbaa !19
  %3 = load ptr, ptr %2, align 8, !tbaa !19
  %4 = getelementptr inbounds nuw %struct.Aig_Obj_t_, ptr %3, i32 0, i32 3
  %5 = load i64, ptr %4, align 8
  %6 = and i64 %5, 7
  %7 = trunc i64 %6 to i32
  %8 = icmp eq i32 %7, 5
  br i1 %8, label %16, label %9

9:                                                ; preds = %1
  %10 = load ptr, ptr %2, align 8, !tbaa !19
  %11 = getelementptr inbounds nuw %struct.Aig_Obj_t_, ptr %10, i32 0, i32 3
  %12 = load i64, ptr %11, align 8
  %13 = and i64 %12, 7
  %14 = trunc i64 %13 to i32
  %15 = icmp eq i32 %14, 6
  br label %16

16:                                               ; preds = %9, %1
  %17 = phi i1 [ true, %1 ], [ %15, %9 ]
  %18 = zext i1 %17 to i32
  ret i32 %18
}

; Function Attrs: inlinehint nounwind uwtable
define internal i32 @Llb_ObjSetPath(ptr noundef %0, ptr noundef %1) #2 {
  %3 = alloca ptr, align 8
  %4 = alloca ptr, align 8
  store ptr %0, ptr %3, align 8, !tbaa !19
  store ptr %1, ptr %4, align 8, !tbaa !19
  %5 = load ptr, ptr %4, align 8, !tbaa !19
  %6 = load ptr, ptr %3, align 8, !tbaa !19
  %7 = getelementptr inbounds nuw %struct.Aig_Obj_t_, ptr %6, i32 0, i32 6
  store ptr %5, ptr %7, align 8, !tbaa !56
  ret i32 1
}

; Function Attrs: inlinehint nounwind uwtable
define internal ptr @Llb_ObjGetPath(ptr noundef %0) #2 {
  %2 = alloca ptr, align 8
  store ptr %0, ptr %2, align 8, !tbaa !19
  %3 = load ptr, ptr %2, align 8, !tbaa !19
  %4 = getelementptr inbounds nuw %struct.Aig_Obj_t_, ptr %3, i32 0, i32 6
  %5 = load ptr, ptr %4, align 8, !tbaa !56
  ret ptr %5
}

; Function Attrs: inlinehint nounwind uwtable
define internal void @Aig_ObjSetTravIdCurrent(ptr noundef %0, ptr noundef %1) #2 {
  %3 = alloca ptr, align 8
  %4 = alloca ptr, align 8
  store ptr %0, ptr %3, align 8, !tbaa !3
  store ptr %1, ptr %4, align 8, !tbaa !19
  %5 = load ptr, ptr %3, align 8, !tbaa !3
  %6 = getelementptr inbounds nuw %struct.Aig_Man_t_, ptr %5, i32 0, i32 38
  %7 = load i32, ptr %6, align 8, !tbaa !66
  %8 = load ptr, ptr %4, align 8, !tbaa !19
  %9 = getelementptr inbounds nuw %struct.Aig_Obj_t_, ptr %8, i32 0, i32 4
  store i32 %7, ptr %9, align 8, !tbaa !65
  ret void
}

; Function Attrs: inlinehint nounwind uwtable
define internal i32 @Aig_ObjIsTravIdCurrent(ptr noundef %0, ptr noundef %1) #2 {
  %3 = alloca ptr, align 8
  %4 = alloca ptr, align 8
  store ptr %0, ptr %3, align 8, !tbaa !3
  store ptr %1, ptr %4, align 8, !tbaa !19
  %5 = load ptr, ptr %4, align 8, !tbaa !19
  %6 = getelementptr inbounds nuw %struct.Aig_Obj_t_, ptr %5, i32 0, i32 4
  %7 = load i32, ptr %6, align 8, !tbaa !65
  %8 = load ptr, ptr %3, align 8, !tbaa !3
  %9 = getelementptr inbounds nuw %struct.Aig_Man_t_, ptr %8, i32 0, i32 38
  %10 = load i32, ptr %9, align 8, !tbaa !66
  %11 = icmp eq i32 %7, %10
  %12 = zext i1 %11 to i32
  ret i32 %12
}

; Function Attrs: nounwind uwtable
define i32 @Llb_ManFlowBwdPath2_rec(ptr noundef %0, ptr noundef %1) #0 {
  %3 = alloca i32, align 4
  %4 = alloca ptr, align 8
  %5 = alloca ptr, align 8
  %6 = alloca ptr, align 8
  %7 = alloca i32, align 4
  store ptr %0, ptr %4, align 8, !tbaa !3
  store ptr %1, ptr %5, align 8, !tbaa !19
  call void @llvm.lifetime.start.p0(i64 8, ptr %6) #10
  %8 = load ptr, ptr %4, align 8, !tbaa !3
  %9 = load ptr, ptr %5, align 8, !tbaa !19
  %10 = call i32 @Aig_ObjIsTravIdCurrent(ptr noundef %8, ptr noundef %9)
  %11 = icmp ne i32 %10, 0
  br i1 %11, label %12, label %13

12:                                               ; preds = %2
  store i32 0, ptr %3, align 4
  store i32 1, ptr %7, align 4
  br label %96

13:                                               ; preds = %2
  %14 = load ptr, ptr %4, align 8, !tbaa !3
  %15 = load ptr, ptr %5, align 8, !tbaa !19
  call void @Aig_ObjSetTravIdCurrent(ptr noundef %14, ptr noundef %15)
  %16 = load ptr, ptr %5, align 8, !tbaa !19
  %17 = call ptr @Llb_ObjGetPath(ptr noundef %16)
  %18 = icmp ne ptr %17, null
  br i1 %18, label %58, label %19

19:                                               ; preds = %13
  %20 = load ptr, ptr %5, align 8, !tbaa !19
  %21 = getelementptr inbounds nuw %struct.Aig_Obj_t_, ptr %20, i32 0, i32 3
  %22 = load i64, ptr %21, align 8
  %23 = lshr i64 %22, 4
  %24 = and i64 %23, 1
  %25 = trunc i64 %24 to i32
  %26 = icmp ne i32 %25, 0
  br i1 %26, label %27, label %30

27:                                               ; preds = %19
  %28 = load ptr, ptr %5, align 8, !tbaa !19
  %29 = call i32 @Llb_ObjSetPath(ptr noundef %28, ptr noundef inttoptr (i64 1 to ptr))
  store i32 %29, ptr %3, align 4
  store i32 1, ptr %7, align 4
  br label %96

30:                                               ; preds = %19
  %31 = load ptr, ptr %5, align 8, !tbaa !19
  %32 = call i32 @Aig_ObjIsNode(ptr noundef %31)
  %33 = icmp ne i32 %32, 0
  br i1 %33, label %34, label %57

34:                                               ; preds = %30
  %35 = load ptr, ptr %4, align 8, !tbaa !3
  %36 = load ptr, ptr %5, align 8, !tbaa !19
  %37 = call ptr @Aig_ObjFanin0(ptr noundef %36)
  %38 = call i32 @Llb_ManFlowBwdPath2_rec(ptr noundef %35, ptr noundef %37)
  %39 = icmp ne i32 %38, 0
  br i1 %39, label %40, label %45

40:                                               ; preds = %34
  %41 = load ptr, ptr %5, align 8, !tbaa !19
  %42 = load ptr, ptr %5, align 8, !tbaa !19
  %43 = call ptr @Aig_ObjFanin0(ptr noundef %42)
  %44 = call i32 @Llb_ObjSetPath(ptr noundef %41, ptr noundef %43)
  store i32 %44, ptr %3, align 4
  store i32 1, ptr %7, align 4
  br label %96

45:                                               ; preds = %34
  %46 = load ptr, ptr %4, align 8, !tbaa !3
  %47 = load ptr, ptr %5, align 8, !tbaa !19
  %48 = call ptr @Aig_ObjFanin1(ptr noundef %47)
  %49 = call i32 @Llb_ManFlowBwdPath2_rec(ptr noundef %46, ptr noundef %48)
  %50 = icmp ne i32 %49, 0
  br i1 %50, label %51, label %56

51:                                               ; preds = %45
  %52 = load ptr, ptr %5, align 8, !tbaa !19
  %53 = load ptr, ptr %5, align 8, !tbaa !19
  %54 = call ptr @Aig_ObjFanin1(ptr noundef %53)
  %55 = call i32 @Llb_ObjSetPath(ptr noundef %52, ptr noundef %54)
  store i32 %55, ptr %3, align 4
  store i32 1, ptr %7, align 4
  br label %96

56:                                               ; preds = %45
  br label %57

57:                                               ; preds = %56, %30
  store i32 0, ptr %3, align 4
  store i32 1, ptr %7, align 4
  br label %96

58:                                               ; preds = %13
  %59 = load ptr, ptr %4, align 8, !tbaa !3
  %60 = load ptr, ptr %5, align 8, !tbaa !19
  %61 = call ptr @Llb_ObjGetFanoutPath(ptr noundef %59, ptr noundef %60)
  store ptr %61, ptr %6, align 8, !tbaa !19
  %62 = load ptr, ptr %6, align 8, !tbaa !19
  %63 = icmp eq ptr %62, null
  br i1 %63, label %64, label %65

64:                                               ; preds = %58
  store i32 0, ptr %3, align 4
  store i32 1, ptr %7, align 4
  br label %96

65:                                               ; preds = %58
  %66 = load ptr, ptr %4, align 8, !tbaa !3
  %67 = load ptr, ptr %6, align 8, !tbaa !19
  %68 = call ptr @Aig_ObjFanin0(ptr noundef %67)
  %69 = call i32 @Llb_ManFlowBwdPath2_rec(ptr noundef %66, ptr noundef %68)
  %70 = icmp ne i32 %69, 0
  br i1 %70, label %71, label %76

71:                                               ; preds = %65
  %72 = load ptr, ptr %6, align 8, !tbaa !19
  %73 = load ptr, ptr %6, align 8, !tbaa !19
  %74 = call ptr @Aig_ObjFanin0(ptr noundef %73)
  %75 = call i32 @Llb_ObjSetPath(ptr noundef %72, ptr noundef %74)
  store i32 %75, ptr %3, align 4
  store i32 1, ptr %7, align 4
  br label %96

76:                                               ; preds = %65
  %77 = load ptr, ptr %4, align 8, !tbaa !3
  %78 = load ptr, ptr %6, align 8, !tbaa !19
  %79 = call ptr @Aig_ObjFanin1(ptr noundef %78)
  %80 = call i32 @Llb_ManFlowBwdPath2_rec(ptr noundef %77, ptr noundef %79)
  %81 = icmp ne i32 %80, 0
  br i1 %81, label %82, label %87

82:                                               ; preds = %76
  %83 = load ptr, ptr %6, align 8, !tbaa !19
  %84 = load ptr, ptr %6, align 8, !tbaa !19
  %85 = call ptr @Aig_ObjFanin1(ptr noundef %84)
  %86 = call i32 @Llb_ObjSetPath(ptr noundef %83, ptr noundef %85)
  store i32 %86, ptr %3, align 4
  store i32 1, ptr %7, align 4
  br label %96

87:                                               ; preds = %76
  %88 = load ptr, ptr %4, align 8, !tbaa !3
  %89 = load ptr, ptr %6, align 8, !tbaa !19
  %90 = call i32 @Llb_ManFlowBwdPath2_rec(ptr noundef %88, ptr noundef %89)
  %91 = icmp ne i32 %90, 0
  br i1 %91, label %92, label %95

92:                                               ; preds = %87
  %93 = load ptr, ptr %6, align 8, !tbaa !19
  %94 = call i32 @Llb_ObjSetPath(ptr noundef %93, ptr noundef null)
  store i32 %94, ptr %3, align 4
  store i32 1, ptr %7, align 4
  br label %96

95:                                               ; preds = %87
  store i32 0, ptr %3, align 4
  store i32 1, ptr %7, align 4
  br label %96

96:                                               ; preds = %95, %92, %82, %71, %64, %57, %51, %40, %27, %12
  call void @llvm.lifetime.end.p0(i64 8, ptr %6) #10
  %97 = load i32, ptr %3, align 4
  ret i32 %97
}