; Function Attrs: nofree nosync nounwind memory(readwrite, inaccessiblemem: none) uwtable
define range(i32 0, 2) i32 @Llb_ManFlowBwdPath2_rec(ptr noundef %0, ptr noundef %1) local_unnamed_addr #6 {
  %3 = getelementptr i8, ptr %0, i64 312
  %.val39 = load i32, ptr %3, align 8, !tbaa !14
  %4 = getelementptr i8, ptr %1, i64 32
  %.val40 = load i32, ptr %4, align 8, !tbaa !28
  %.not = icmp eq i32 %.val40, %.val39
  br i1 %.not, label %Llb_ObjGetFanoutPath.exit.thread, label %5

5:                                                ; preds = %2
  store i32 %.val39, ptr %4, align 8, !tbaa !28
  %6 = getelementptr i8, ptr %1, i64 40
  %.val50 = load ptr, ptr %6, align 8, !tbaa !40
  %.not31 = icmp eq ptr %.val50, null
  %7 = getelementptr inbounds nuw i8, ptr %1, i64 24
  %8 = load i64, ptr %7, align 8
  br i1 %.not31, label %9, label %36

9:                                                ; preds = %5
  %10 = and i64 %8, 16
  %.not32 = icmp eq i64 %10, 0
  br i1 %.not32, label %12, label %11

11:                                               ; preds = %9
  store ptr inttoptr (i64 1 to ptr), ptr %6, align 8, !tbaa !40
  br label %Llb_ObjGetFanoutPath.exit.thread

12:                                               ; preds = %9
  %13 = trunc i64 %8 to i32
  %14 = and i32 %13, 7
  %15 = add nsw i32 %14, -7
  %narrow.i = icmp ult i32 %15, -2
  br i1 %narrow.i, label %Llb_ObjGetFanoutPath.exit.thread, label %16

16:                                               ; preds = %12
  %17 = getelementptr i8, ptr %1, i64 8
  %.val44 = load ptr, ptr %17, align 8, !tbaa !31
  %18 = ptrtoint ptr %.val44 to i64
  %19 = and i64 %18, -2
  %20 = inttoptr i64 %19 to ptr
  %21 = tail call i32 @Llb_ManFlowBwdPath2_rec(ptr noundef nonnull %0, ptr noundef %20)
  %.not34 = icmp eq i32 %21, 0
  br i1 %.not34, label %26, label %22

22:                                               ; preds = %16
  %.val43 = load ptr, ptr %17, align 8, !tbaa !31
  %23 = ptrtoint ptr %.val43 to i64
  %24 = and i64 %23, -2
  %25 = inttoptr i64 %24 to ptr
  store ptr %25, ptr %6, align 8, !tbaa !40
  br label %Llb_ObjGetFanoutPath.exit.thread

26:                                               ; preds = %16
  %27 = getelementptr i8, ptr %1, i64 16
  %.val48 = load ptr, ptr %27, align 8, !tbaa !32
  %28 = ptrtoint ptr %.val48 to i64
  %29 = and i64 %28, -2
  %30 = inttoptr i64 %29 to ptr
  %31 = tail call i32 @Llb_ManFlowBwdPath2_rec(ptr noundef nonnull %0, ptr noundef %30)
  %.not35 = icmp eq i32 %31, 0
  br i1 %.not35, label %Llb_ObjGetFanoutPath.exit.thread, label %32

32:                                               ; preds = %26
  %.val47 = load ptr, ptr %27, align 8, !tbaa !32
  %33 = ptrtoint ptr %.val47 to i64
  %34 = and i64 %33, -2
  %35 = inttoptr i64 %34 to ptr
  store ptr %35, ptr %6, align 8, !tbaa !40
  br label %Llb_ObjGetFanoutPath.exit.thread

36:                                               ; preds = %5
  %37 = trunc i64 %8 to i32
  %.not21.i = icmp ult i32 %37, 64
  br i1 %.not21.i, label %Llb_ObjGetFanoutPath.exit.thread, label %.lr.ph.i

.lr.ph.i:                                         ; preds = %36
  %38 = lshr i32 %37, 6
  %39 = getelementptr i8, ptr %0, i64 176
  %40 = getelementptr inbounds nuw i8, ptr %1, i64 36
  %41 = getelementptr i8, ptr %0, i64 32
  %.val16.i = load ptr, ptr %41, align 8, !tbaa !35, !nonnull !70, !noundef !70
  %42 = getelementptr i8, ptr %.val16.i, i64 8
  %.val.i.i = load ptr, ptr %42, align 8, !tbaa !9
  %.val15.sink.i = load ptr, ptr %39, align 8, !tbaa !62
  br label %45

43:                                               ; preds = %Aig_ManObj.exit.i
  %44 = add nuw nsw i32 %.01318.i, 1
  %exitcond.not.i = icmp eq i32 %44, %38
  br i1 %exitcond.not.i, label %Llb_ObjGetFanoutPath.exit.thread, label %45, !llvm.loop !71

45:                                               ; preds = %43, %.lr.ph.i
  %.019.i = phi i32 [ -1, %.lr.ph.i ], [ %57, %43 ]
  %.01318.i = phi i32 [ 0, %.lr.ph.i ], [ %44, %43 ]
  %.not.i = icmp eq i32 %.01318.i, 0
  br i1 %.not.i, label %52, label %46

46:                                               ; preds = %45
  %47 = ashr i32 %.019.i, 1
  %48 = mul nsw i32 %47, 5
  %49 = and i32 %.019.i, 1
  %50 = add nuw nsw i32 %49, 3
  %51 = add i32 %50, %48
  br label %Aig_ManObj.exit.i

52:                                               ; preds = %45
  %53 = load i32, ptr %40, align 4, !tbaa !42
  %54 = mul nsw i32 %53, 5
  br label %Aig_ManObj.exit.i

Aig_ManObj.exit.i:                                ; preds = %52, %46
  %.sink22.i = phi i32 [ %54, %52 ], [ %51, %46 ]
  %55 = sext i32 %.sink22.i to i64
  %56 = getelementptr inbounds i32, ptr %.val15.sink.i, i64 %55
  %57 = load i32, ptr %56, align 4, !tbaa !43
  %58 = ashr i32 %57, 1
  %59 = sext i32 %58 to i64
  %60 = getelementptr inbounds ptr, ptr %.val.i.i, i64 %59
  %61 = load ptr, ptr %60, align 8, !tbaa !11
  %62 = getelementptr i8, ptr %61, i64 40
  %.val17.i = load ptr, ptr %62, align 8, !tbaa !40
  %63 = icmp eq ptr %.val17.i, %1
  br i1 %63, label %Llb_ObjGetFanoutPath.exit, label %43

Llb_ObjGetFanoutPath.exit:                        ; preds = %Aig_ManObj.exit.i
  %64 = getelementptr i8, ptr %61, i64 40
  %65 = getelementptr i8, ptr %61, i64 8
  %.val42 = load ptr, ptr %65, align 8, !tbaa !31
  %66 = ptrtoint ptr %.val42 to i64
  %67 = and i64 %66, -2
  %68 = inttoptr i64 %67 to ptr
  %69 = tail call i32 @Llb_ManFlowBwdPath2_rec(ptr noundef nonnull %0, ptr noundef %68)
  %.not36 = icmp eq i32 %69, 0
  br i1 %.not36, label %74, label %70

70:                                               ; preds = %Llb_ObjGetFanoutPath.exit
  %.val41 = load ptr, ptr %65, align 8, !tbaa !31
  %71 = ptrtoint ptr %.val41 to i64
  %72 = and i64 %71, -2
  %73 = inttoptr i64 %72 to ptr
  store ptr %73, ptr %64, align 8, !tbaa !40
  br label %Llb_ObjGetFanoutPath.exit.thread

74:                                               ; preds = %Llb_ObjGetFanoutPath.exit
  %75 = getelementptr i8, ptr %61, i64 16
  %.val46 = load ptr, ptr %75, align 8, !tbaa !32
  %76 = ptrtoint ptr %.val46 to i64
  %77 = and i64 %76, -2
  %78 = inttoptr i64 %77 to ptr
  %79 = tail call i32 @Llb_ManFlowBwdPath2_rec(ptr noundef nonnull %0, ptr noundef %78)
  %.not37 = icmp eq i32 %79, 0
  br i1 %.not37, label %84, label %80

80:                                               ; preds = %74
  %.val45 = load ptr, ptr %75, align 8, !tbaa !32
  %81 = ptrtoint ptr %.val45 to i64
  %82 = and i64 %81, -2
  %83 = inttoptr i64 %82 to ptr
  store ptr %83, ptr %64, align 8, !tbaa !40
  br label %Llb_ObjGetFanoutPath.exit.thread

84:                                               ; preds = %74
  %85 = tail call i32 @Llb_ManFlowBwdPath2_rec(ptr noundef nonnull %0, ptr noundef nonnull %61)
  %.not38 = icmp eq i32 %85, 0
  br i1 %.not38, label %Llb_ObjGetFanoutPath.exit.thread, label %86

86:                                               ; preds = %84
  store ptr null, ptr %64, align 8, !tbaa !40
  br label %Llb_ObjGetFanoutPath.exit.thread

Llb_ObjGetFanoutPath.exit.thread:                 ; preds = %43, %36, %84, %12, %26, %2, %86, %80, %70, %32, %22, %11
  %.0 = phi i32 [ 1, %70 ], [ 1, %80 ], [ 1, %86 ], [ 1, %11 ], [ 1, %22 ], [ 1, %32 ], [ 0, %2 ], [ 0, %26 ], [ 0, %12 ], [ 0, %84 ], [ 0, %36 ], [ 0, %43 ]
  ret i32 %.0
}